Certificate:
    Data:
        Version: 3 (0x2)
        Serial Number:
            4e:e7:57:c7:0f:37:81:6d:36:28:37:79:9c:50:54:35
        Signature Algorithm: sha256WithRSAEncryption
        Issuer: CN=Root_CA
        Validity
            Not Before: Apr 24 19:19:16 2025 GMT
            Not After : Jul 28 19:19:16 2027 GMT
        Subject: CN=jyotiprakash
        Subject Public Key Info:
            Public Key Algorithm: rsaEncryption
                Public-Key: (2048 bit)
                Modulus:
                    00:d9:cf:02:e1:e4:8f:e6:ca:64:ae:08:90:f4:92:
                    7d:1d:f7:1f:c6:24:cd:41:cd:65:f1:5f:54:b1:18:
                    f7:3e:db:86:43:7e:68:cc:1e:48:92:8e:0d:2d:a6:
                    ed:29:22:28:d6:7b:76:98:b8:fb:37:3f:e1:37:44:
                    76:28:47:1e:bb:23:b1:2d:80:ba:03:8e:b9:b6:99:
                    c1:90:41:10:80:d3:01:43:3e:8c:5d:80:3d:37:5a:
                    7b:f9:2f:15:ef:65:c3:65:f6:07:46:b9:90:63:90:
                    3a:bd:6b:f8:0f:78:1d:58:9d:ac:48:65:16:f5:f0:
                    cb:e9:68:86:50:9e:d8:5f:75:a2:23:4d:08:24:29:
                    6a:c4:73:6f:8f:11:50:92:e0:62:e1:5e:6f:19:10:
                    80:83:04:02:19:2c:1b:8c:cf:fe:ac:44:04:b3:70:
                    45:46:16:d7:c0:e4:b5:f6:01:c0:d9:b0:c6:92:e0:
                    f2:aa:18:49:84:47:7b:c0:74:fd:b5:e0:74:98:c5:
                    c4:3e:7e:92:a9:49:80:43:8b:59:04:fb:85:91:85:
                    3a:17:88:92:10:8c:bc:9c:6b:c0:02:85:74:51:30:
                    8d:49:cf:f7:1c:0e:80:fc:1f:3c:46:ec:7e:e7:83:
                    94:5f:fc:57:23:aa:61:e3:a0:cc:91:b0:7b:21:aa:
                    7c:b3
                Exponent: 65537 (0x10001)
        X509v3 extensions:
            X509v3 Basic Constraints: 
                CA:FALSE
            X509v3 Subject Key Identifier: 
                70:B1:87:16:AD:F3:54:86:53:97:21:22:EA:55:B6:C4:AE:04:83:B4
            X509v3 Authority Key Identifier: 
                keyid:AF:ED:04:B5:69:72:7A:01:08:4F:AD:1E:EE:B1:47:6C:80:20:5C:F0
                DirName:/CN=Root_CA
                serial:2C:C1:79:E5:0B:B8:09:66:7F:46:8C:50:86:2C:DB:2F:AA:BB:2C:9A
            X509v3 Extended Key Usage: 
                TLS Web Client Authentication
            X509v3 Key Usage: 
                Digital Signature
    Signature Algorithm: sha256WithRSAEncryption
    Signature Value:
        bb:99:bd:7d:e4:3e:be:19:e4:68:68:af:08:09:a2:dc:18:d2:
        97:90:e9:c6:1a:6e:6d:cb:1a:e9:1e:fd:8b:4a:64:f4:d8:2b:
        4f:42:bb:4e:4e:a2:30:7e:22:4b:0c:95:91:0d:41:5f:10:4c:
        65:c9:aa:c0:54:2c:5b:78:fb:f0:e4:1e:db:3b:e1:25:16:1b:
        6f:da:f5:fb:3e:04:6c:22:2b:3b:d3:2a:6b:7b:8f:9f:c0:b1:
        76:54:01:fc:22:9a:9b:90:db:ad:85:09:98:01:36:fe:16:97:
        2e:da:06:99:e1:ea:b0:75:06:f9:ac:90:a0:90:a5:8d:81:26:
        19:93:aa:81:32:d3:ff:ad:c7:e6:51:63:28:0e:57:73:97:25:
        2e:f4:8a:8a:f9:b1:44:c4:18:7a:6f:c4:04:17:8d:9f:3d:57:
        8d:a3:1c:de:1c:6e:90:69:70:0d:ee:2e:86:d0:dc:0f:25:75:
        3b:ad:b8:6b:6d:a4:85:52:f5:34:7d:fc:63:8a:2f:58:e7:94:
        8f:2e:18:58:42:46:1c:69:df:e0:83:c3:06:d8:df:d2:85:ce:
        68:1e:f8:ba:fd:a2:31:83:94:fd:f9:1e:b0:2c:f2:8e:12:24:
        4a:6f:d5:0f:bb:a8:ed:e5:52:2c:07:70:89:21:80:3e:a9:20:
        f2:6b:ea:0c
-----BEGIN CERTIFICATE-----
MIIDUjCCAjqgAwIBAgIQTudXxw83gW02KDd5nFBUNTANBgkqhkiG9w0BAQsFADAS
MRAwDgYDVQQDDAdSb290X0NBMB4XDTI1MDQyNDE5MTkxNloXDTI3MDcyODE5MTkx
NlowFzEVMBMGA1UEAwwManlvdGlwcmFrYXNoMIIBIjANBgkqhkiG9w0BAQEFAAOC
AQ8AMIIBCgKCAQEA2c8C4eSP5spkrgiQ9JJ9HfcfxiTNQc1l8V9UsRj3PtuGQ35o
zB5Iko4NLabtKSIo1nt2mLj7Nz/hN0R2KEceuyOxLYC6A465tpnBkEEQgNMBQz6M
XYA9N1p7+S8V72XDZfYHRrmQY5A6vWv4D3gdWJ2sSGUW9fDL6WiGUJ7YX3WiI00I
JClqxHNvjxFQkuBi4V5vGRCAgwQCGSwbjM/+rEQEs3BFRhbXwOS19gHA2bDGkuDy
qhhJhEd7wHT9teB0mMXEPn6SqUmAQ4tZBPuFkYU6F4iSEIy8nGvAAoV0UTCNSc/3
HA6A/B88Rux+54OUX/xXI6ph46DMkbB7Iap8swIDAQABo4GeMIGbMAkGA1UdEwQC
MAAwHQYDVR0OBBYEFHCxhxat81SGU5chIupVtsSuBIO0ME0GA1UdIwRGMESAFK/t
BLVpcnoBCE+tHu6xR2yAIFzwoRakFDASMRAwDgYDVQQDDAdSb290X0NBghQswXnl
C7gJZn9GjFCGLNsvqrssmjATBgNVHSUEDDAKBggrBgEFBQcDAjALBgNVHQ8EBAMC
B4AwDQYJKoZIhvcNAQELBQADggEBALuZvX3kPr4Z5GhorwgJotwY0peQ6cYabm3L
Guke/YtKZPTYK09Cu05OojB+IksMlZENQV8QTGXJqsBULFt4+/DkHts74SUWG2/a
9fs+BGwiKzvTKmt7j5/AsXZUAfwimpuQ262FCZgBNv4Wly7aBpnh6rB1BvmskKCQ
pY2BJhmTqoEy0/+tx+ZRYygOV3OXJS70ior5sUTEGHpvxAQXjZ89V42jHN4cbpBp
cA3uLobQ3A8ldTutuGttpIVS9TR9/GOKL1jnlI8uGFhCRhxp3+CDwwbY39KFzmge
+Lr9ojGDlP35HrAs8o4SJEpv1Q+7qO3lUiwHcIkhgD6pIPJr6gw=
-----END CERTIFICATE-----
