Certificate:
    Data:
        Version: 3 (0x2)
        Serial Number:
            11:c3:05:41:99:66:97:ef:d1:b0:93:c0:1e:41:ef:39
        Signature Algorithm: sha256WithRSAEncryption
        Issuer: CN=Root_CA
        Validity
            Not Before: Apr 20 22:54:15 2025 GMT
            Not After : Jul 24 22:54:15 2027 GMT
        Subject: CN=Group4 NS
        Subject Public Key Info:
            Public Key Algorithm: rsaEncryption
                Public-Key: (2048 bit)
                Modulus:
                    00:8d:20:68:3d:6b:30:a8:d2:69:75:3d:e7:e5:de:
                    1f:d0:40:2b:c8:17:de:e1:86:68:3f:b7:c0:f4:36:
                    29:5e:c2:8f:37:46:18:5a:86:b1:4b:97:dd:0f:64:
                    c3:26:f0:09:28:e6:03:84:07:26:b0:07:e4:ca:b6:
                    11:ff:97:61:cc:92:8e:63:e4:35:a2:6c:84:7b:af:
                    de:05:cc:52:b7:d2:35:c5:f5:bf:1d:32:8f:1d:1f:
                    db:f2:4b:a2:b1:5f:50:87:1b:bc:f9:92:b6:3c:64:
                    51:89:5b:61:77:ad:1c:fb:12:4a:17:b5:ff:e9:bb:
                    c3:ed:d4:1f:50:17:ca:93:14:bf:cc:02:c5:02:7c:
                    b0:f8:66:5b:d7:c5:99:2e:fd:b7:08:c8:04:5d:d6:
                    b1:2f:48:f8:d8:3a:34:ae:25:a9:b2:f6:ae:02:db:
                    36:cb:bc:71:6a:44:72:8a:b3:78:b3:9a:e0:5a:11:
                    57:55:a2:39:82:01:31:48:10:09:c3:36:a4:c2:dd:
                    93:da:09:84:53:f1:af:41:37:74:48:47:fd:7c:0b:
                    59:f9:dd:36:fa:4a:5b:5f:5d:81:44:8d:da:98:d0:
                    3d:53:16:af:f3:93:47:56:ea:96:17:6b:d2:68:7d:
                    45:d4:4a:2c:fa:1a:9e:81:a2:e2:53:32:6c:3d:c9:
                    58:2b
                Exponent: 65537 (0x10001)
        X509v3 extensions:
            X509v3 Basic Constraints: 
                CA:FALSE
            X509v3 Subject Key Identifier: 
                34:6E:70:87:45:B8:6A:71:EC:5E:92:0B:01:8C:5D:03:9C:E5:76:34
            X509v3 Authority Key Identifier: 
                keyid:AF:ED:04:B5:69:72:7A:01:08:4F:AD:1E:EE:B1:47:6C:80:20:5C:F0
                DirName:/CN=Root_CA
                serial:2C:C1:79:E5:0B:B8:09:66:7F:46:8C:50:86:2C:DB:2F:AA:BB:2C:9A
            X509v3 Extended Key Usage: 
                TLS Web Client Authentication
            X509v3 Key Usage: 
                Digital Signature
    Signature Algorithm: sha256WithRSAEncryption
    Signature Value:
        67:e9:f0:21:e0:38:8a:09:c9:ba:ae:43:86:db:33:a7:3f:3a:
        23:fb:28:c5:51:70:a5:09:40:76:b8:f1:28:bb:0f:cc:e9:b4:
        50:84:8a:c2:8e:fd:c0:cf:26:17:8c:24:4a:ce:0a:7f:28:73:
        1e:e4:7e:56:cc:95:04:ce:e4:19:6f:df:a5:ee:a4:f7:ec:d9:
        1b:cf:b0:b0:a3:13:13:b3:79:72:4a:07:63:7a:d9:4f:f7:48:
        4b:04:51:4a:45:07:b0:22:da:7a:a8:c1:36:74:ed:93:19:6e:
        ed:b1:b8:49:4e:d6:14:d7:4f:24:ce:6b:e3:5a:33:e0:13:7e:
        d4:92:38:11:cf:50:69:90:0e:e4:2f:dc:4e:8a:71:3b:a7:39:
        68:e7:39:44:23:1b:81:6f:1e:91:e7:15:38:c6:df:42:b2:42:
        3d:f0:32:41:10:89:fb:ba:0a:0c:bd:b1:f9:9e:ec:80:e9:41:
        03:af:b3:82:65:4e:be:39:fa:91:8d:77:be:b1:4c:d7:a7:be:
        0c:93:a1:a3:fd:2b:93:47:c1:e4:b3:87:63:8e:2a:8d:0a:a6:
        48:59:80:f6:d1:85:c0:14:fe:5d:35:b9:0a:61:77:5b:dd:39:
        34:b0:ad:4f:ef:11:dd:d9:e6:4f:02:a8:97:04:ea:f8:f6:79:
        eb:15:da:57
-----BEGIN CERTIFICATE-----
MIIDTzCCAjegAwIBAgIQEcMFQZlml+/RsJPAHkHvOTANBgkqhkiG9w0BAQsFADAS
MRAwDgYDVQQDDAdSb290X0NBMB4XDTI1MDQyMDIyNTQxNVoXDTI3MDcyNDIyNTQx
NVowFDESMBAGA1UEAwwJR3JvdXA0IE5TMIIBIjANBgkqhkiG9w0BAQEFAAOCAQ8A
MIIBCgKCAQEAjSBoPWswqNJpdT3n5d4f0EAryBfe4YZoP7fA9DYpXsKPN0YYWoax
S5fdD2TDJvAJKOYDhAcmsAfkyrYR/5dhzJKOY+Q1omyEe6/eBcxSt9I1xfW/HTKP
HR/b8kuisV9Qhxu8+ZK2PGRRiVthd60c+xJKF7X/6bvD7dQfUBfKkxS/zALFAnyw
+GZb18WZLv23CMgEXdaxL0j42Do0riWpsvauAts2y7xxakRyirN4s5rgWhFXVaI5
ggExSBAJwzakwt2T2gmEU/GvQTd0SEf9fAtZ+d02+kpbX12BRI3amNA9Uxav85NH
VuqWF2vSaH1F1Eos+hqegaLiUzJsPclYKwIDAQABo4GeMIGbMAkGA1UdEwQCMAAw
HQYDVR0OBBYEFDRucIdFuGpx7F6SCwGMXQOc5XY0ME0GA1UdIwRGMESAFK/tBLVp
cnoBCE+tHu6xR2yAIFzwoRakFDASMRAwDgYDVQQDDAdSb290X0NBghQswXnlC7gJ
Zn9GjFCGLNsvqrssmjATBgNVHSUEDDAKBggrBgEFBQcDAjALBgNVHQ8EBAMCB4Aw
DQYJKoZIhvcNAQELBQADggEBAGfp8CHgOIoJybquQ4bbM6c/OiP7KMVRcKUJQHa4
8Si7D8zptFCEisKO/cDPJheMJErOCn8ocx7kflbMlQTO5Blv36XupPfs2RvPsLCj
ExOzeXJKB2N62U/3SEsEUUpFB7Ai2nqowTZ07ZMZbu2xuElO1hTXTyTOa+NaM+AT
ftSSOBHPUGmQDuQv3E6KcTunOWjnOUQjG4FvHpHnFTjG30KyQj3wMkEQifu6Cgy9
sfme7IDpQQOvs4JlTr45+pGNd76xTNenvgyToaP9K5NHweSzh2OOKo0KpkhZgPbR
hcAU/l01uQphd1vdOTSwrU/vEd3Z5k8CqJcE6vj2eesV2lc=
-----END CERTIFICATE-----
