Certificate:
    Data:
        Version: 3 (0x2)
        Serial Number:
            1f:a4:01:71:bb:7f:81:61:3b:5b:88:36:b7:5b:0b:34
        Signature Algorithm: sha256WithRSAEncryption
        Issuer: CN=Root_CA
        Validity
            Not Before: Apr 24 19:36:12 2025 GMT
            Not After : Jul 28 19:36:12 2027 GMT
        Subject: CN=jyotiprakash
        Subject Public Key Info:
            Public Key Algorithm: rsaEncryption
                Public-Key: (2048 bit)
                Modulus:
                    00:cb:1a:c5:22:12:f8:5b:2c:7b:e6:79:6a:70:65:
                    49:a5:7c:70:4c:f4:c3:d3:6c:86:23:06:a5:ae:04:
                    30:41:66:30:6e:f4:c3:7c:c4:e8:91:e8:35:19:71:
                    a4:b5:8b:58:f0:0c:ea:e7:f1:c3:fe:13:02:ef:ab:
                    5f:f6:83:bd:e9:d2:88:12:9a:c4:b3:c9:e5:3a:97:
                    bc:8a:0b:88:45:eb:42:6b:18:21:ae:2b:ba:bf:ab:
                    3f:96:42:78:3f:f4:ea:06:58:9d:9b:f1:61:52:31:
                    a5:f9:4b:68:a8:0c:5d:ff:53:e5:6b:c8:40:8a:fa:
                    73:29:ad:58:9c:11:7b:45:a8:a1:6d:21:a4:09:4b:
                    c4:d6:84:3f:e5:68:1f:4c:c6:08:a1:b6:de:20:19:
                    51:f0:d5:8e:c2:2a:63:4e:7f:9c:1a:ec:a0:3c:6f:
                    02:ff:43:09:83:a2:3c:9d:ce:93:aa:d8:e9:c1:54:
                    82:af:07:4a:2b:54:a1:c0:d0:b2:1d:53:e3:5a:7b:
                    ed:ab:52:8d:8f:7c:15:21:16:ac:39:9b:ce:08:33:
                    11:a5:b1:7a:9f:97:35:d4:66:91:71:2c:a0:62:66:
                    a6:2e:60:8f:2b:78:85:63:7e:d2:b4:1a:26:9e:56:
                    a6:20:96:24:f7:61:3f:40:3c:9e:99:b9:74:8a:9b:
                    d0:37
                Exponent: 65537 (0x10001)
        X509v3 extensions:
            X509v3 Basic Constraints: 
                CA:FALSE
            X509v3 Subject Key Identifier: 
                73:5A:F0:1E:09:98:13:01:37:D2:D2:E0:6A:4D:2A:34:BD:92:32:40
            X509v3 Authority Key Identifier: 
                keyid:AF:ED:04:B5:69:72:7A:01:08:4F:AD:1E:EE:B1:47:6C:80:20:5C:F0
                DirName:/CN=Root_CA
                serial:2C:C1:79:E5:0B:B8:09:66:7F:46:8C:50:86:2C:DB:2F:AA:BB:2C:9A
            X509v3 Extended Key Usage: 
                TLS Web Client Authentication
            X509v3 Key Usage: 
                Digital Signature
    Signature Algorithm: sha256WithRSAEncryption
    Signature Value:
        6c:de:af:42:b7:ee:8d:02:47:14:0e:20:4e:79:87:bd:0e:77:
        dd:44:18:44:3e:05:bd:51:05:53:6a:7c:1c:5c:69:7f:3d:ed:
        d6:fc:5a:3b:0c:5e:e3:cf:fd:03:9b:74:32:72:05:ad:e7:30:
        f2:53:35:b6:4f:75:4e:6f:07:c2:30:4f:31:42:1c:81:9f:49:
        65:a9:c3:5a:79:dc:de:d7:a8:27:f2:25:1f:30:95:d0:b9:2a:
        fa:8c:2f:bb:4c:6e:36:60:8c:e0:1d:1c:f2:10:48:12:47:07:
        da:26:4b:03:e2:b6:61:8f:9b:a8:13:9b:ea:fd:16:ec:a6:d1:
        49:60:7b:9f:b2:67:d6:89:5f:a4:f5:f1:64:0e:13:8a:1a:cb:
        04:08:34:01:69:1c:a5:fb:5d:9d:d9:f8:50:4f:df:46:33:b8:
        0e:a7:c5:fe:d4:7f:95:3d:40:57:57:03:3e:bf:b4:29:8b:c8:
        0d:b1:d6:c7:6e:f5:46:28:ca:84:51:9a:2f:9a:68:13:33:53:
        f2:63:65:76:3a:d6:21:73:f3:67:d6:f3:94:69:66:a2:0e:a5:
        61:0a:c6:10:6b:68:3d:0a:ae:89:4e:b9:f8:6f:38:6c:92:82:
        c8:a6:0f:50:8e:34:42:1a:65:53:d9:21:bc:a9:9e:eb:ad:2c:
        57:db:84:67
-----BEGIN CERTIFICATE-----
MIIDUjCCAjqgAwIBAgIQH6QBcbt/gWE7W4g2t1sLNDANBgkqhkiG9w0BAQsFADAS
MRAwDgYDVQQDDAdSb290X0NBMB4XDTI1MDQyNDE5MzYxMloXDTI3MDcyODE5MzYx
MlowFzEVMBMGA1UEAwwManlvdGlwcmFrYXNoMIIBIjANBgkqhkiG9w0BAQEFAAOC
AQ8AMIIBCgKCAQEAyxrFIhL4Wyx75nlqcGVJpXxwTPTD02yGIwalrgQwQWYwbvTD
fMTokeg1GXGktYtY8Azq5/HD/hMC76tf9oO96dKIEprEs8nlOpe8iguIRetCaxgh
riu6v6s/lkJ4P/TqBlidm/FhUjGl+UtoqAxd/1Pla8hAivpzKa1YnBF7RaihbSGk
CUvE1oQ/5WgfTMYIobbeIBlR8NWOwipjTn+cGuygPG8C/0MJg6I8nc6TqtjpwVSC
rwdKK1ShwNCyHVPjWnvtq1KNj3wVIRasOZvOCDMRpbF6n5c11GaRcSygYmamLmCP
K3iFY37StBomnlamIJYk92E/QDyembl0ipvQNwIDAQABo4GeMIGbMAkGA1UdEwQC
MAAwHQYDVR0OBBYEFHNa8B4JmBMBN9LS4GpNKjS9kjJAME0GA1UdIwRGMESAFK/t
BLVpcnoBCE+tHu6xR2yAIFzwoRakFDASMRAwDgYDVQQDDAdSb290X0NBghQswXnl
C7gJZn9GjFCGLNsvqrssmjATBgNVHSUEDDAKBggrBgEFBQcDAjALBgNVHQ8EBAMC
B4AwDQYJKoZIhvcNAQELBQADggEBAGzer0K37o0CRxQOIE55h70Od91EGEQ+Bb1R
BVNqfBxcaX897db8WjsMXuPP/QObdDJyBa3nMPJTNbZPdU5vB8IwTzFCHIGfSWWp
w1p53N7XqCfyJR8wldC5KvqML7tMbjZgjOAdHPIQSBJHB9omSwPitmGPm6gTm+r9
Fuym0Ulge5+yZ9aJX6T18WQOE4oaywQINAFpHKX7XZ3Z+FBP30YzuA6nxf7Uf5U9
QFdXAz6/tCmLyA2x1sdu9UYoyoRRmi+aaBMzU/JjZXY61iFz82fW85RpZqIOpWEK
xhBraD0KrolOufhvOGySgsimD1CONEIaZVPZIbypnuutLFfbhGc=
-----END CERTIFICATE-----
