Certificate:
    Data:
        Version: 3 (0x2)
        Serial Number:
            62:d3:65:a3:6d:c0:d8:e4:44:34:48:7f:e5:63:9e:19
        Signature Algorithm: sha256WithRSAEncryption
        Issuer: CN=Root_CA
        Validity
            Not Before: Apr 21 09:28:08 2025 GMT
            Not After : Jul 25 09:28:08 2027 GMT
        Subject: CN=client3
        Subject Public Key Info:
            Public Key Algorithm: rsaEncryption
                Public-Key: (2048 bit)
                Modulus:
                    00:dc:4e:e4:c2:1b:5a:08:36:37:d5:d9:1e:99:5a:
                    5b:d8:7d:b1:7b:cc:73:53:7b:1a:9a:26:56:78:5e:
                    4a:15:4b:29:76:15:3b:c2:52:92:ad:22:87:2d:b8:
                    16:14:06:a3:bf:97:88:0b:b6:48:67:b3:a6:89:86:
                    e7:9f:76:e2:d6:9b:1d:1d:17:21:ef:b4:d1:95:cc:
                    a9:d7:aa:e0:c9:ae:52:56:d9:c8:b4:54:84:2b:98:
                    e7:d7:69:c8:7e:a3:31:8c:e8:c5:f0:2c:60:2b:cd:
                    8e:42:85:c4:d6:0d:ef:50:82:80:69:c3:24:f6:43:
                    49:8a:d2:fe:c6:28:ba:7b:b1:53:b8:fb:ed:e8:09:
                    e5:9b:fe:b1:49:c1:38:76:21:10:5c:a6:f4:84:1a:
                    12:56:89:9f:e4:47:85:e2:bb:88:82:3b:e6:5a:52:
                    b6:b4:54:c1:0a:51:47:ad:1c:f6:4f:5a:93:77:05:
                    64:dc:33:b0:61:2d:c2:f3:ef:59:10:58:4e:68:4b:
                    61:fa:cf:59:15:23:2e:bf:75:6f:80:f5:a8:11:ee:
                    0e:aa:7e:fc:c8:b1:60:1b:e6:8e:9c:f8:b7:17:91:
                    f9:e0:3d:0b:aa:2a:fb:62:ac:ee:30:7a:06:f6:18:
                    ab:2c:67:70:99:b9:06:a3:9d:05:a0:26:52:de:de:
                    8b:4b
                Exponent: 65537 (0x10001)
        X509v3 extensions:
            X509v3 Basic Constraints: 
                CA:FALSE
            X509v3 Subject Key Identifier: 
                FA:2D:3E:D2:9C:E7:22:44:69:BC:39:CC:6A:9C:7A:00:EB:2E:12:A0
            X509v3 Authority Key Identifier: 
                keyid:AF:ED:04:B5:69:72:7A:01:08:4F:AD:1E:EE:B1:47:6C:80:20:5C:F0
                DirName:/CN=Root_CA
                serial:2C:C1:79:E5:0B:B8:09:66:7F:46:8C:50:86:2C:DB:2F:AA:BB:2C:9A
            X509v3 Extended Key Usage: 
                TLS Web Client Authentication
            X509v3 Key Usage: 
                Digital Signature
    Signature Algorithm: sha256WithRSAEncryption
    Signature Value:
        b8:e7:9d:4f:db:4c:8d:ef:d0:0d:6d:b7:f1:61:7a:e4:b3:73:
        b7:d7:b8:ec:52:f1:43:75:8e:e4:32:e1:40:89:6d:ee:63:4d:
        8e:94:ae:f8:bb:c7:84:3c:9a:8d:6f:75:c6:b6:85:c5:19:b9:
        44:1f:1c:6f:38:e3:d1:27:d8:83:80:33:68:7a:49:81:3e:7f:
        bc:21:3a:7d:c9:af:69:f0:dd:e4:d3:c9:08:79:2b:68:00:5c:
        75:49:54:10:43:c0:2f:59:e8:0b:30:c7:2f:f1:60:53:4e:d0:
        f0:11:14:60:ca:44:34:69:ed:d8:d8:6d:4e:f0:28:39:fa:ba:
        90:d4:a9:84:c6:69:2a:11:32:ce:97:bd:f7:4e:de:b0:b1:c5:
        45:ca:65:da:d9:ff:55:98:0d:cc:f7:0d:ff:0f:9c:0b:c8:6e:
        0f:a1:02:00:7a:28:e0:6d:64:d9:50:8e:d7:60:d9:70:b9:fa:
        dc:03:3b:88:e2:be:9b:5c:60:9a:39:06:34:6f:a1:84:d7:9c:
        e1:c7:0b:8e:56:99:52:eb:40:30:23:50:52:50:86:d7:8a:b6:
        50:50:c0:d9:35:06:69:77:b0:b1:4c:18:ff:9a:5a:e6:21:49:
        96:c3:4f:eb:c3:6c:db:f3:37:56:44:2b:d3:9a:6e:9a:82:37:
        92:d9:db:1b
-----BEGIN CERTIFICATE-----
MIIDTTCCAjWgAwIBAgIQYtNlo23A2ORENEh/5WOeGTANBgkqhkiG9w0BAQsFADAS
MRAwDgYDVQQDDAdSb290X0NBMB4XDTI1MDQyMTA5MjgwOFoXDTI3MDcyNTA5Mjgw
OFowEjEQMA4GA1UEAwwHY2xpZW50MzCCASIwDQYJKoZIhvcNAQEBBQADggEPADCC
AQoCggEBANxO5MIbWgg2N9XZHplaW9h9sXvMc1N7GpomVnheShVLKXYVO8JSkq0i
hy24FhQGo7+XiAu2SGezpomG55924tabHR0XIe+00ZXMqdeq4MmuUlbZyLRUhCuY
59dpyH6jMYzoxfAsYCvNjkKFxNYN71CCgGnDJPZDSYrS/sYounuxU7j77egJ5Zv+
sUnBOHYhEFym9IQaElaJn+RHheK7iII75lpStrRUwQpRR60c9k9ak3cFZNwzsGEt
wvPvWRBYTmhLYfrPWRUjLr91b4D1qBHuDqp+/MixYBvmjpz4txeR+eA9C6oq+2Ks
7jB6BvYYqyxncJm5BqOdBaAmUt7ei0sCAwEAAaOBnjCBmzAJBgNVHRMEAjAAMB0G
A1UdDgQWBBT6LT7SnOciRGm8OcxqnHoA6y4SoDBNBgNVHSMERjBEgBSv7QS1aXJ6
AQhPrR7usUdsgCBc8KEWpBQwEjEQMA4GA1UEAwwHUm9vdF9DQYIULMF55Qu4CWZ/
RoxQhizbL6q7LJowEwYDVR0lBAwwCgYIKwYBBQUHAwIwCwYDVR0PBAQDAgeAMA0G
CSqGSIb3DQEBCwUAA4IBAQC4551P20yN79ANbbfxYXrks3O317jsUvFDdY7kMuFA
iW3uY02OlK74u8eEPJqNb3XGtoXFGblEHxxvOOPRJ9iDgDNoekmBPn+8ITp9ya9p
8N3k08kIeStoAFx1SVQQQ8AvWegLMMcv8WBTTtDwERRgykQ0ae3Y2G1O8Cg5+rqQ
1KmExmkqETLOl733Tt6wscVFymXa2f9VmA3M9w3/D5wLyG4PoQIAeijgbWTZUI7X
YNlwufrcAzuI4r6bXGCaOQY0b6GE15zhxwuOVplS60AwI1BSUIbXirZQUMDZNQZp
d7CxTBj/mlrmIUmWw0/rw2zb8zdWRCvTmm6agjeS2dsb
-----END CERTIFICATE-----
