Certificate:
    Data:
        Version: 3 (0x2)
        Serial Number:
            74:56:8c:20:e5:11:15:3d:27:93:3b:b6:22:ea:5c:9c
        Signature Algorithm: sha256WithRSAEncryption
        Issuer: CN=Root_CA
        Validity
            Not Before: Apr 21 11:10:14 2025 GMT
            Not After : Jul 25 11:10:14 2027 GMT
        Subject: CN=request1
        Subject Public Key Info:
            Public Key Algorithm: rsaEncryption
                Public-Key: (2048 bit)
                Modulus:
                    00:c7:01:dc:cf:9e:f8:45:dc:a7:f9:8d:8d:05:bb:
                    82:ff:b7:b8:0e:c5:4e:ba:99:70:9d:af:34:27:55:
                    bf:0a:2d:9c:68:52:2a:10:d1:d7:91:5d:8c:26:b5:
                    d4:ca:85:13:85:8c:ff:82:fa:93:1f:89:c9:81:66:
                    3e:62:36:34:91:87:b4:aa:9e:4c:21:8f:3e:76:e4:
                    d0:c0:40:c9:ec:ad:2b:22:fa:0c:4d:fc:51:3f:3d:
                    c7:cb:ec:3c:03:2f:28:3d:c9:eb:09:b9:e8:16:7d:
                    80:de:40:79:d8:96:95:a1:5f:f4:06:d2:77:45:ea:
                    22:03:c9:c2:33:41:14:de:ad:10:41:44:03:3f:80:
                    e8:bf:17:89:a4:af:6d:f9:2e:65:f5:07:cc:46:4b:
                    f6:27:7a:f1:81:67:4f:73:92:cf:c3:6c:35:be:7f:
                    87:0a:f0:9e:f2:cc:0a:71:69:10:ad:88:e9:be:de:
                    0e:ea:ac:26:da:a5:bc:16:b1:d7:22:c7:04:a8:b5:
                    a3:84:4f:1f:59:53:69:6d:3f:42:51:46:53:bc:5a:
                    ca:6b:7d:53:a8:49:e5:8b:4d:5f:9d:9d:a0:ee:72:
                    67:41:86:ed:df:86:d6:9b:36:5b:04:14:7f:97:f0:
                    ad:4d:27:65:aa:ef:5d:01:f2:3c:e3:80:05:1b:7c:
                    25:63
                Exponent: 65537 (0x10001)
        X509v3 extensions:
            X509v3 Basic Constraints: 
                CA:FALSE
            X509v3 Subject Key Identifier: 
                DE:81:8D:26:96:8D:A1:62:16:34:DE:F9:86:FD:05:21:85:96:F3:96
            X509v3 Authority Key Identifier: 
                keyid:AF:ED:04:B5:69:72:7A:01:08:4F:AD:1E:EE:B1:47:6C:80:20:5C:F0
                DirName:/CN=Root_CA
                serial:2C:C1:79:E5:0B:B8:09:66:7F:46:8C:50:86:2C:DB:2F:AA:BB:2C:9A
            X509v3 Extended Key Usage: 
                TLS Web Client Authentication
            X509v3 Key Usage: 
                Digital Signature
    Signature Algorithm: sha256WithRSAEncryption
    Signature Value:
        94:3d:4e:df:72:8c:89:51:8a:19:0a:c9:5c:cb:40:2c:1e:c3:
        9c:f8:43:12:17:90:02:2f:dd:e4:eb:7b:fc:84:f6:95:e5:05:
        4a:07:c7:2a:85:82:9e:b1:c3:f9:ad:9e:d0:6b:8e:4f:df:31:
        ff:a2:00:57:a3:8e:f9:29:4d:df:20:f1:b3:97:d4:2f:39:ce:
        03:b5:b1:72:d1:f3:d9:23:f4:da:a8:5a:6c:7c:4d:2f:28:61:
        05:47:b5:c7:bc:a6:f9:1a:34:be:f3:39:f3:a6:66:ba:d9:88:
        8b:c2:36:3b:9b:ab:c2:90:26:e8:06:e9:08:d0:0e:dd:30:b1:
        d8:54:11:a5:ef:0f:3c:79:46:76:fa:14:52:04:6d:d7:35:08:
        de:ed:ba:38:5f:f6:20:80:41:ba:b1:b2:a7:d5:b9:e1:6a:88:
        a6:9e:0f:d1:a8:66:52:1c:48:54:85:bf:63:44:b1:65:d6:4c:
        fb:3c:5f:90:bf:a2:ad:c3:d7:e7:f4:c6:e7:18:f8:1d:65:78:
        8b:9e:df:19:2c:3f:56:43:c2:8b:dd:fa:86:29:ad:7b:f5:e4:
        eb:b5:4d:d9:93:d7:6a:96:3c:db:23:45:a9:a4:bb:2c:cf:da:
        51:6f:46:26:32:48:5d:1b:8f:87:fd:b1:6f:b3:15:5f:7e:ed:
        5c:49:11:37
-----BEGIN CERTIFICATE-----
MIIDTjCCAjagAwIBAgIQdFaMIOURFT0nkzu2IupcnDANBgkqhkiG9w0BAQsFADAS
MRAwDgYDVQQDDAdSb290X0NBMB4XDTI1MDQyMTExMTAxNFoXDTI3MDcyNTExMTAx
NFowEzERMA8GA1UEAwwIcmVxdWVzdDEwggEiMA0GCSqGSIb3DQEBAQUAA4IBDwAw
ggEKAoIBAQDHAdzPnvhF3Kf5jY0Fu4L/t7gOxU66mXCdrzQnVb8KLZxoUioQ0deR
XYwmtdTKhROFjP+C+pMficmBZj5iNjSRh7Sqnkwhjz525NDAQMnsrSsi+gxN/FE/
PcfL7DwDLyg9yesJuegWfYDeQHnYlpWhX/QG0ndF6iIDycIzQRTerRBBRAM/gOi/
F4mkr235LmX1B8xGS/YnevGBZ09zks/DbDW+f4cK8J7yzApxaRCtiOm+3g7qrCba
pbwWsdcixwSotaOETx9ZU2ltP0JRRlO8WsprfVOoSeWLTV+dnaDucmdBhu3fhtab
NlsEFH+X8K1NJ2Wq710B8jzjgAUbfCVjAgMBAAGjgZ4wgZswCQYDVR0TBAIwADAd
BgNVHQ4EFgQU3oGNJpaNoWIWNN75hv0FIYWW85YwTQYDVR0jBEYwRIAUr+0EtWly
egEIT60e7rFHbIAgXPChFqQUMBIxEDAOBgNVBAMMB1Jvb3RfQ0GCFCzBeeULuAlm
f0aMUIYs2y+quyyaMBMGA1UdJQQMMAoGCCsGAQUFBwMCMAsGA1UdDwQEAwIHgDAN
BgkqhkiG9w0BAQsFAAOCAQEAlD1O33KMiVGKGQrJXMtALB7DnPhDEheQAi/d5Ot7
/IT2leUFSgfHKoWCnrHD+a2e0GuOT98x/6IAV6OO+SlN3yDxs5fULznOA7WxctHz
2SP02qhabHxNLyhhBUe1x7ym+Ro0vvM586ZmutmIi8I2O5urwpAm6AbpCNAO3TCx
2FQRpe8PPHlGdvoUUgRt1zUI3u26OF/2IIBBurGyp9W54WqIpp4P0ahmUhxIVIW/
Y0SxZdZM+zxfkL+ircPX5/TG5xj4HWV4i57fGSw/VkPCi936himte/Xk67VN2ZPX
apY82yNFqaS7LM/aUW9GJjJIXRuPh/2xb7MVX37tXEkRNw==
-----END CERTIFICATE-----
