Certificate:
    Data:
        Version: 3 (0x2)
        Serial Number:
            75:8b:7a:ee:d9:dd:29:da:17:66:46:aa:9a:da:15:6f
        Signature Algorithm: sha256WithRSAEncryption
        Issuer: CN=Root_CA
        Validity
            Not Before: Apr 21 11:16:15 2025 GMT
            Not After : Jul 25 11:16:15 2027 GMT
        Subject: CN=request1
        Subject Public Key Info:
            Public Key Algorithm: rsaEncryption
                Public-Key: (2048 bit)
                Modulus:
                    00:c7:01:dc:cf:9e:f8:45:dc:a7:f9:8d:8d:05:bb:
                    82:ff:b7:b8:0e:c5:4e:ba:99:70:9d:af:34:27:55:
                    bf:0a:2d:9c:68:52:2a:10:d1:d7:91:5d:8c:26:b5:
                    d4:ca:85:13:85:8c:ff:82:fa:93:1f:89:c9:81:66:
                    3e:62:36:34:91:87:b4:aa:9e:4c:21:8f:3e:76:e4:
                    d0:c0:40:c9:ec:ad:2b:22:fa:0c:4d:fc:51:3f:3d:
                    c7:cb:ec:3c:03:2f:28:3d:c9:eb:09:b9:e8:16:7d:
                    80:de:40:79:d8:96:95:a1:5f:f4:06:d2:77:45:ea:
                    22:03:c9:c2:33:41:14:de:ad:10:41:44:03:3f:80:
                    e8:bf:17:89:a4:af:6d:f9:2e:65:f5:07:cc:46:4b:
                    f6:27:7a:f1:81:67:4f:73:92:cf:c3:6c:35:be:7f:
                    87:0a:f0:9e:f2:cc:0a:71:69:10:ad:88:e9:be:de:
                    0e:ea:ac:26:da:a5:bc:16:b1:d7:22:c7:04:a8:b5:
                    a3:84:4f:1f:59:53:69:6d:3f:42:51:46:53:bc:5a:
                    ca:6b:7d:53:a8:49:e5:8b:4d:5f:9d:9d:a0:ee:72:
                    67:41:86:ed:df:86:d6:9b:36:5b:04:14:7f:97:f0:
                    ad:4d:27:65:aa:ef:5d:01:f2:3c:e3:80:05:1b:7c:
                    25:63
                Exponent: 65537 (0x10001)
        X509v3 extensions:
            X509v3 Basic Constraints: 
                CA:FALSE
            X509v3 Subject Key Identifier: 
                DE:81:8D:26:96:8D:A1:62:16:34:DE:F9:86:FD:05:21:85:96:F3:96
            X509v3 Authority Key Identifier: 
                keyid:AF:ED:04:B5:69:72:7A:01:08:4F:AD:1E:EE:B1:47:6C:80:20:5C:F0
                DirName:/CN=Root_CA
                serial:2C:C1:79:E5:0B:B8:09:66:7F:46:8C:50:86:2C:DB:2F:AA:BB:2C:9A
            X509v3 Extended Key Usage: 
                TLS Web Client Authentication
            X509v3 Key Usage: 
                Digital Signature
    Signature Algorithm: sha256WithRSAEncryption
    Signature Value:
        a9:ec:22:b2:d1:43:c3:b5:1a:ea:14:67:1e:6e:36:5c:67:db:
        c4:a1:14:1c:83:8e:e0:9f:7f:9d:6e:15:2c:31:28:fb:c6:0a:
        4b:c8:28:56:02:01:e6:e1:03:01:56:e2:00:0f:ce:8c:a4:6b:
        b6:f7:63:35:80:ac:a2:04:b6:7f:72:17:76:cb:0b:f7:ce:59:
        a2:39:f4:2a:ce:41:cb:b7:0b:d3:36:82:59:b6:5d:91:f8:1f:
        6d:30:65:3f:0e:ed:2b:9e:16:ad:6b:7b:68:91:e1:71:89:e3:
        6f:9b:68:09:7a:51:0d:04:80:bc:08:2b:d9:d3:ab:ec:65:61:
        d4:9d:bb:83:8e:dd:94:55:77:97:38:08:e2:b3:09:eb:12:09:
        5f:aa:20:02:2e:79:0d:9d:cb:fb:58:be:4d:29:6d:0c:d1:e7:
        59:ac:dd:88:e8:33:34:03:fe:f7:27:45:3a:fc:31:5d:f2:52:
        b1:b2:bc:15:a9:65:fe:a9:9e:0b:f2:d2:7d:6a:3b:e2:8b:76:
        46:2d:46:80:9c:05:39:63:79:de:00:57:17:98:3d:c2:2f:27:
        d0:87:21:7a:05:07:c2:00:a9:35:98:df:e6:41:bd:d8:d6:2c:
        07:e8:3a:6a:82:4c:36:42:14:f1:68:4c:03:f8:12:cd:9f:97:
        b7:c1:07:ea
-----BEGIN CERTIFICATE-----
MIIDTjCCAjagAwIBAgIQdYt67tndKdoXZkaqmtoVbzANBgkqhkiG9w0BAQsFADAS
MRAwDgYDVQQDDAdSb290X0NBMB4XDTI1MDQyMTExMTYxNVoXDTI3MDcyNTExMTYx
NVowEzERMA8GA1UEAwwIcmVxdWVzdDEwggEiMA0GCSqGSIb3DQEBAQUAA4IBDwAw
ggEKAoIBAQDHAdzPnvhF3Kf5jY0Fu4L/t7gOxU66mXCdrzQnVb8KLZxoUioQ0deR
XYwmtdTKhROFjP+C+pMficmBZj5iNjSRh7Sqnkwhjz525NDAQMnsrSsi+gxN/FE/
PcfL7DwDLyg9yesJuegWfYDeQHnYlpWhX/QG0ndF6iIDycIzQRTerRBBRAM/gOi/
F4mkr235LmX1B8xGS/YnevGBZ09zks/DbDW+f4cK8J7yzApxaRCtiOm+3g7qrCba
pbwWsdcixwSotaOETx9ZU2ltP0JRRlO8WsprfVOoSeWLTV+dnaDucmdBhu3fhtab
NlsEFH+X8K1NJ2Wq710B8jzjgAUbfCVjAgMBAAGjgZ4wgZswCQYDVR0TBAIwADAd
BgNVHQ4EFgQU3oGNJpaNoWIWNN75hv0FIYWW85YwTQYDVR0jBEYwRIAUr+0EtWly
egEIT60e7rFHbIAgXPChFqQUMBIxEDAOBgNVBAMMB1Jvb3RfQ0GCFCzBeeULuAlm
f0aMUIYs2y+quyyaMBMGA1UdJQQMMAoGCCsGAQUFBwMCMAsGA1UdDwQEAwIHgDAN
BgkqhkiG9w0BAQsFAAOCAQEAqewistFDw7Ua6hRnHm42XGfbxKEUHIOO4J9/nW4V
LDEo+8YKS8goVgIB5uEDAVbiAA/OjKRrtvdjNYCsogS2f3IXdssL985Zojn0Ks5B
y7cL0zaCWbZdkfgfbTBlPw7tK54WrWt7aJHhcYnjb5toCXpRDQSAvAgr2dOr7GVh
1J27g47dlFV3lzgI4rMJ6xIJX6ogAi55DZ3L+1i+TSltDNHnWazdiOgzNAP+9ydF
OvwxXfJSsbK8Fall/qmeC/LSfWo74ot2Ri1GgJwFOWN53gBXF5g9wi8n0IchegUH
wgCpNZjf5kG92NYsB+g6aoJMNkIU8WhMA/gSzZ+Xt8EH6g==
-----END CERTIFICATE-----
