Certificate:
    Data:
        Version: 3 (0x2)
        Serial Number:
            b6:4f:5f:c3:65:ef:bb:e7:7d:30:65:62:c3:24:0d:b0
        Signature Algorithm: sha256WithRSAEncryption
        Issuer: CN=Root_CA
        Validity
            Not Before: Apr 24 19:40:47 2025 GMT
            Not After : Jul 28 19:40:47 2027 GMT
        Subject: CN=Jyoti@123
        Subject Public Key Info:
            Public Key Algorithm: rsaEncryption
                Public-Key: (2048 bit)
                Modulus:
                    00:df:1c:f4:67:9a:29:2a:77:b6:41:30:21:68:3e:
                    a8:b4:2c:62:1b:14:e7:70:87:1d:1c:9a:f2:41:d0:
                    02:bd:44:4a:6d:7f:cb:3a:fb:fd:2d:23:58:ae:d2:
                    29:92:21:23:f3:8c:97:e9:d9:84:4e:1e:d1:bb:d1:
                    1e:f0:64:0a:07:db:fb:eb:c8:f2:3d:ba:2e:eb:6e:
                    fc:cb:85:0d:7e:60:32:13:b6:68:0a:10:4a:2d:6f:
                    b0:af:68:e3:c2:ed:e6:0f:c6:0e:78:de:d6:94:fb:
                    28:9c:9e:5d:e4:02:66:d5:b4:4d:19:4f:23:46:a7:
                    75:0a:5a:30:1f:28:d9:5e:18:47:3f:22:5d:6e:83:
                    44:f2:f7:91:2f:7e:75:ca:7c:70:26:6f:43:91:6a:
                    d0:ff:d8:90:6a:a2:ca:4d:9b:0d:84:a0:40:23:7b:
                    85:b8:28:d9:dd:0d:e5:15:ae:66:bd:33:45:26:99:
                    65:29:63:1b:36:1d:3e:37:65:43:5c:b9:26:76:e2:
                    8f:a3:65:38:b6:83:47:bf:b8:e5:63:7c:82:e8:ca:
                    81:3b:da:b2:a3:c7:0d:65:91:b8:20:a9:39:a7:e1:
                    6b:5f:8a:87:8c:6a:fa:a6:32:ee:53:7e:89:01:ee:
                    ea:c2:7b:9f:de:16:5b:3a:e1:98:05:d1:68:15:77:
                    8b:fd
                Exponent: 65537 (0x10001)
        X509v3 extensions:
            X509v3 Basic Constraints: 
                CA:FALSE
            X509v3 Subject Key Identifier: 
                83:6D:84:91:17:8B:A3:A6:58:EF:A8:BB:A8:CB:C4:84:38:68:87:8A
            X509v3 Authority Key Identifier: 
                keyid:AF:ED:04:B5:69:72:7A:01:08:4F:AD:1E:EE:B1:47:6C:80:20:5C:F0
                DirName:/CN=Root_CA
                serial:2C:C1:79:E5:0B:B8:09:66:7F:46:8C:50:86:2C:DB:2F:AA:BB:2C:9A
            X509v3 Extended Key Usage: 
                TLS Web Client Authentication
            X509v3 Key Usage: 
                Digital Signature
    Signature Algorithm: sha256WithRSAEncryption
    Signature Value:
        87:d2:b9:a7:0a:f3:be:3d:54:7e:cc:cb:95:e3:7e:e2:d8:ef:
        0b:69:88:f8:5b:fc:13:1e:50:23:8f:0f:ec:f3:5a:e0:62:2a:
        e1:55:23:f9:27:ff:93:eb:14:57:04:15:a9:04:3d:e9:2d:87:
        95:0e:d1:0d:d4:7f:7b:bd:fe:88:84:25:87:53:f5:a2:78:4a:
        5a:44:c1:f1:e8:ca:d8:e2:27:a8:8f:c5:ba:f7:37:89:cd:22:
        d2:f1:ae:4d:d5:3e:b7:4c:7b:ca:4e:7d:56:c3:94:78:f9:6e:
        8c:cc:bf:5e:e8:ea:78:2e:a3:6c:f8:f8:dc:90:be:0d:f0:a3:
        81:d8:d1:eb:f1:57:47:57:d8:de:66:9c:b2:1b:bb:25:fe:2b:
        9c:69:77:a6:40:5e:0c:e2:d5:62:8b:12:72:84:be:28:33:20:
        88:2e:55:c3:7f:31:0d:42:d7:7d:9f:ef:ec:a0:f7:b3:89:58:
        0e:5b:d7:45:81:2a:3b:b0:c2:17:9b:da:19:22:56:d1:a7:7e:
        4f:21:af:a1:ef:61:b9:38:ed:cb:0a:b9:6d:2f:09:cc:89:24:
        4d:1b:90:4c:d7:fb:13:d5:80:0e:68:ab:15:a7:41:d2:4e:b3:
        45:44:ed:96:e8:b6:b0:d9:44:ad:bd:64:92:c7:cc:2c:7b:4e:
        24:cf:a2:7d
-----BEGIN CERTIFICATE-----
MIIDUDCCAjigAwIBAgIRALZPX8Nl77vnfTBlYsMkDbAwDQYJKoZIhvcNAQELBQAw
EjEQMA4GA1UEAwwHUm9vdF9DQTAeFw0yNTA0MjQxOTQwNDdaFw0yNzA3MjgxOTQw
NDdaMBQxEjAQBgNVBAMMCUp5b3RpQDEyMzCCASIwDQYJKoZIhvcNAQEBBQADggEP
ADCCAQoCggEBAN8c9GeaKSp3tkEwIWg+qLQsYhsU53CHHRya8kHQAr1ESm1/yzr7
/S0jWK7SKZIhI/OMl+nZhE4e0bvRHvBkCgfb++vI8j26Lutu/MuFDX5gMhO2aAoQ
Si1vsK9o48Lt5g/GDnje1pT7KJyeXeQCZtW0TRlPI0andQpaMB8o2V4YRz8iXW6D
RPL3kS9+dcp8cCZvQ5Fq0P/YkGqiyk2bDYSgQCN7hbgo2d0N5RWuZr0zRSaZZSlj
GzYdPjdlQ1y5Jnbij6NlOLaDR7+45WN8gujKgTvasqPHDWWRuCCpOafha1+Kh4xq
+qYy7lN+iQHu6sJ7n94WWzrhmAXRaBV3i/0CAwEAAaOBnjCBmzAJBgNVHRMEAjAA
MB0GA1UdDgQWBBSDbYSRF4ujpljvqLuoy8SEOGiHijBNBgNVHSMERjBEgBSv7QS1
aXJ6AQhPrR7usUdsgCBc8KEWpBQwEjEQMA4GA1UEAwwHUm9vdF9DQYIULMF55Qu4
CWZ/RoxQhizbL6q7LJowEwYDVR0lBAwwCgYIKwYBBQUHAwIwCwYDVR0PBAQDAgeA
MA0GCSqGSIb3DQEBCwUAA4IBAQCH0rmnCvO+PVR+zMuV437i2O8LaYj4W/wTHlAj
jw/s81rgYirhVSP5J/+T6xRXBBWpBD3pLYeVDtEN1H97vf6IhCWHU/WieEpaRMHx
6MrY4ieoj8W69zeJzSLS8a5N1T63THvKTn1Ww5R4+W6MzL9e6Op4LqNs+PjckL4N
8KOB2NHr8VdHV9jeZpyyG7sl/iucaXemQF4M4tViixJyhL4oMyCILlXDfzENQtd9
n+/soPeziVgOW9dFgSo7sMIXm9oZIlbRp35PIa+h72G5OO3LCrltLwnMiSRNG5BM
1/sT1YAOaKsVp0HSTrNFRO2W6Law2UStvWSSx8wse04kz6J9
-----END CERTIFICATE-----
