Certificate:
    Data:
        Version: 3 (0x2)
        Serial Number:
            ec:e1:a5:28:9b:53:0a:05:9e:ef:49:cb:ee:7f:e7:75
        Signature Algorithm: sha256WithRSAEncryption
        Issuer: CN=Root_CA
        Validity
            Not Before: Apr 20 18:06:00 2025 GMT
            Not After : Jul 24 18:06:00 2027 GMT
        Subject: CN=VPN_server
        Subject Public Key Info:
            Public Key Algorithm: rsaEncryption
                Public-Key: (2048 bit)
                Modulus:
                    00:b2:ee:91:63:e9:84:ad:33:d6:70:57:1f:2c:4e:
                    2f:1d:3c:88:c3:31:0a:92:8a:20:fc:d1:3e:07:db:
                    dd:4e:79:1d:a6:22:2d:03:cc:f3:46:da:b0:df:ae:
                    4a:8f:61:45:93:34:51:5d:19:87:77:34:c7:52:93:
                    fa:c8:67:ed:09:fd:af:25:4d:8f:b7:09:56:e5:40:
                    47:e6:9e:9b:e9:9e:2e:81:0d:4c:8b:20:8e:a8:1b:
                    f9:5f:b4:00:c3:cf:e3:88:fc:6d:e7:af:02:e9:27:
                    ed:9b:4e:ad:a1:3e:c9:82:02:a1:46:d6:de:90:b0:
                    96:76:66:b4:28:85:dc:4b:92:47:65:e3:d9:c9:b3:
                    1c:c0:e1:e0:50:e9:58:49:d4:02:8b:02:eb:8b:91:
                    36:73:dc:86:d7:e7:a2:52:b2:d3:20:65:54:62:9b:
                    8a:b5:62:ed:6a:c9:f5:cf:3f:66:c4:5e:27:e7:e3:
                    ac:18:22:28:c1:0f:88:4d:c5:0d:e9:da:e2:ae:a4:
                    c4:f9:d3:20:3b:2a:73:ed:e7:a8:6a:e2:05:f8:fb:
                    a3:5d:d6:b8:3c:b6:79:d9:d8:18:01:e8:92:35:b8:
                    3c:e5:31:aa:a9:b7:c6:cb:8d:25:61:77:58:2d:43:
                    79:0c:3a:4c:fb:05:b2:a9:a8:fd:01:c6:37:cf:0b:
                    d6:ed
                Exponent: 65537 (0x10001)
        X509v3 extensions:
            X509v3 Basic Constraints: 
                CA:FALSE
            X509v3 Subject Key Identifier: 
                64:85:89:E1:CF:02:3E:EF:C2:66:D5:C1:80:76:A4:D1:D5:79:88:45
            X509v3 Authority Key Identifier: 
                keyid:AF:ED:04:B5:69:72:7A:01:08:4F:AD:1E:EE:B1:47:6C:80:20:5C:F0
                DirName:/CN=Root_CA
                serial:2C:C1:79:E5:0B:B8:09:66:7F:46:8C:50:86:2C:DB:2F:AA:BB:2C:9A
            X509v3 Extended Key Usage: 
                TLS Web Server Authentication
            X509v3 Key Usage: 
                Digital Signature, Key Encipherment
    Signature Algorithm: sha256WithRSAEncryption
    Signature Value:
        66:c7:fb:cf:e3:60:9d:2b:57:db:76:74:c8:52:59:ab:f4:b7:
        e1:09:76:ca:6f:4a:81:09:db:fb:36:95:6f:d1:ac:64:54:c0:
        1f:96:01:3f:06:20:9b:79:7d:7b:b5:99:e8:f1:4c:49:a9:01:
        2b:1e:f7:74:a3:24:82:0d:4d:2a:ea:9e:74:aa:91:c4:26:ae:
        47:34:bd:23:83:ee:ea:09:f7:b1:d4:65:e3:74:96:6c:49:5c:
        5e:07:d8:5d:f3:57:93:ed:27:a4:55:4a:5e:24:ce:c8:97:ec:
        77:77:7a:40:c8:7b:04:7d:7d:13:ae:5e:f7:74:cf:fc:a0:ff:
        a7:b5:3e:1b:fc:5c:fb:e7:40:3d:df:11:4c:55:17:fe:42:3c:
        20:7a:33:15:e3:35:59:67:26:7a:0e:ce:ec:1d:0d:54:3c:c4:
        4d:83:d0:c2:35:ee:c0:ca:4d:28:57:2c:40:11:ba:46:8b:5b:
        16:85:fd:6e:e1:17:a0:87:27:c2:c8:b0:5e:68:3c:73:d2:a7:
        45:c4:c5:bd:4c:ca:eb:91:7e:56:17:0b:6d:c7:53:b8:d3:2f:
        02:97:11:69:9f:52:be:23:d0:5e:47:4c:6c:fb:fa:9e:97:d9:
        55:9c:59:4e:f8:ff:b0:2a:cc:ab:a4:a0:11:d1:9c:c1:cd:0d:
        5f:17:b8:de
-----BEGIN CERTIFICATE-----
MIIDUTCCAjmgAwIBAgIRAOzhpSibUwoFnu9Jy+5/53UwDQYJKoZIhvcNAQELBQAw
EjEQMA4GA1UEAwwHUm9vdF9DQTAeFw0yNTA0MjAxODA2MDBaFw0yNzA3MjQxODA2
MDBaMBUxEzARBgNVBAMMClZQTl9zZXJ2ZXIwggEiMA0GCSqGSIb3DQEBAQUAA4IB
DwAwggEKAoIBAQCy7pFj6YStM9ZwVx8sTi8dPIjDMQqSiiD80T4H291OeR2mIi0D
zPNG2rDfrkqPYUWTNFFdGYd3NMdSk/rIZ+0J/a8lTY+3CVblQEfmnpvpni6BDUyL
II6oG/lftADDz+OI/G3nrwLpJ+2bTq2hPsmCAqFG1t6QsJZ2ZrQohdxLkkdl49nJ
sxzA4eBQ6VhJ1AKLAuuLkTZz3IbX56JSstMgZVRim4q1Yu1qyfXPP2bEXifn46wY
IijBD4hNxQ3p2uKupMT50yA7KnPt56hq4gX4+6Nd1rg8tnnZ2BgB6JI1uDzlMaqp
t8bLjSVhd1gtQ3kMOkz7BbKpqP0BxjfPC9btAgMBAAGjgZ4wgZswCQYDVR0TBAIw
ADAdBgNVHQ4EFgQUZIWJ4c8CPu/CZtXBgHak0dV5iEUwTQYDVR0jBEYwRIAUr+0E
tWlyegEIT60e7rFHbIAgXPChFqQUMBIxEDAOBgNVBAMMB1Jvb3RfQ0GCFCzBeeUL
uAlmf0aMUIYs2y+quyyaMBMGA1UdJQQMMAoGCCsGAQUFBwMBMAsGA1UdDwQEAwIF
oDANBgkqhkiG9w0BAQsFAAOCAQEAZsf7z+NgnStX23Z0yFJZq/S34Ql2ym9KgQnb
+zaVb9GsZFTAH5YBPwYgm3l9e7WZ6PFMSakBKx73dKMkgg1NKuqedKqRxCauRzS9
I4Pu6gn3sdRl43SWbElcXgfYXfNXk+0npFVKXiTOyJfsd3d6QMh7BH19E65e93TP
/KD/p7U+G/xc++dAPd8RTFUX/kI8IHozFeM1WWcmeg7O7B0NVDzETYPQwjXuwMpN
KFcsQBG6RotbFoX9buEXoIcnwsiwXmg8c9KnRcTFvUzK65F+VhcLbcdTuNMvApcR
aZ9SviPQXkdMbPv6npfZVZxZTvj/sCrMq6SgEdGcwc0NXxe43g==
-----END CERTIFICATE-----
