Certificate:
    Data:
        Version: 3 (0x2)
        Serial Number:
            f8:68:39:e6:8c:51:80:e9:1c:41:6d:65:e2:19:b9:d1
        Signature Algorithm: sha256WithRSAEncryption
        Issuer: CN=Root_CA
        Validity
            Not Before: Apr 20 18:22:29 2025 GMT
            Not After : Jul 24 18:22:29 2027 GMT
        Subject: CN=Client1
        Subject Public Key Info:
            Public Key Algorithm: rsaEncryption
                Public-Key: (2048 bit)
                Modulus:
                    00:ae:bd:08:13:94:c5:43:5f:48:df:7c:f0:ad:48:
                    67:42:e5:5b:7a:20:8a:8a:11:2e:96:f4:5e:e7:0a:
                    8c:a9:d6:7d:df:ba:55:09:ab:b4:97:76:1a:47:86:
                    5d:e5:67:12:3b:5f:58:87:cf:a5:18:d7:8c:fe:d1:
                    4f:04:ac:0c:54:ac:84:64:59:c1:a9:5b:69:82:1e:
                    06:bd:94:2a:06:49:d3:0e:f5:38:75:6a:63:f3:3f:
                    59:8b:f7:8b:6e:e9:ae:98:49:a2:4b:f1:4d:6a:6f:
                    22:5f:16:43:ef:bc:67:4a:84:6b:19:b1:97:f3:4b:
                    ac:cf:72:fc:01:e9:e1:0c:48:97:03:4c:d6:26:0b:
                    49:48:b6:61:62:a9:d6:84:fa:b3:26:70:c4:6f:47:
                    21:b4:82:6e:b5:a9:57:97:57:cb:30:09:7a:57:3d:
                    08:07:54:05:16:8c:71:42:ce:7f:50:c2:a4:70:25:
                    b3:c0:32:86:b0:fd:69:1a:e6:19:9b:45:9e:b5:e2:
                    69:e4:3f:f9:d4:a1:35:e5:9c:49:42:07:18:c0:c2:
                    b9:3a:a8:1e:9e:5e:0e:23:b0:99:cd:3b:a8:0c:5f:
                    e1:16:6c:19:fe:4e:74:79:27:50:d3:3d:9c:e4:8d:
                    41:5a:6b:be:c9:8f:33:fc:59:b3:fe:fc:ae:c0:3e:
                    07:f9
                Exponent: 65537 (0x10001)
        X509v3 extensions:
            X509v3 Basic Constraints: 
                CA:FALSE
            X509v3 Subject Key Identifier: 
                6A:32:87:F1:23:B4:59:17:D5:F3:AE:47:1D:BB:BC:2A:F3:E1:18:D1
            X509v3 Authority Key Identifier: 
                keyid:AF:ED:04:B5:69:72:7A:01:08:4F:AD:1E:EE:B1:47:6C:80:20:5C:F0
                DirName:/CN=Root_CA
                serial:2C:C1:79:E5:0B:B8:09:66:7F:46:8C:50:86:2C:DB:2F:AA:BB:2C:9A
            X509v3 Extended Key Usage: 
                TLS Web Client Authentication
            X509v3 Key Usage: 
                Digital Signature
    Signature Algorithm: sha256WithRSAEncryption
    Signature Value:
        7d:9b:ce:ff:9d:16:51:5d:67:4c:f5:b6:89:c0:21:fc:26:e4:
        25:8f:48:54:f0:c7:70:41:1e:1f:32:b2:a9:66:3b:0e:9f:be:
        38:bc:ae:18:ba:ee:3a:db:0d:a7:55:70:03:e9:4f:6e:fd:88:
        f0:4c:b6:a3:8c:35:71:d7:07:b5:90:4d:54:2f:71:05:d9:ca:
        11:4f:77:93:6c:98:72:6e:e9:ef:e8:5f:11:9d:61:ab:56:fd:
        04:2c:b8:5f:f7:33:84:7d:5d:89:8b:8e:eb:eb:28:16:81:da:
        6e:0c:18:c5:d2:79:8e:91:e7:51:3a:86:5f:fb:df:6f:dd:05:
        7b:f7:a9:d8:94:9c:28:1e:53:de:29:de:6a:be:71:99:ab:d4:
        31:e0:0a:2a:b7:62:e6:d6:15:5b:e5:e4:d2:d2:4e:ee:fb:6b:
        4f:88:93:de:77:2a:f1:4b:15:38:0e:82:35:b6:65:79:73:ca:
        49:d1:e2:5b:b4:4e:6c:a2:c6:8a:1f:af:9a:b3:d4:98:98:3c:
        6a:e2:0d:93:76:0b:9e:b3:85:7c:f3:1e:86:4a:ee:07:dc:69:
        cb:52:3c:80:89:3f:1e:47:39:96:51:ec:19:11:03:fa:81:8c:
        fb:df:c5:04:9a:33:48:d7:3d:95:69:65:0a:8d:82:cd:98:fb:
        1d:ea:e5:76
-----BEGIN CERTIFICATE-----
MIIDTjCCAjagAwIBAgIRAPhoOeaMUYDpHEFtZeIZudEwDQYJKoZIhvcNAQELBQAw
EjEQMA4GA1UEAwwHUm9vdF9DQTAeFw0yNTA0MjAxODIyMjlaFw0yNzA3MjQxODIy
MjlaMBIxEDAOBgNVBAMMB0NsaWVudDEwggEiMA0GCSqGSIb3DQEBAQUAA4IBDwAw
ggEKAoIBAQCuvQgTlMVDX0jffPCtSGdC5Vt6IIqKES6W9F7nCoyp1n3fulUJq7SX
dhpHhl3lZxI7X1iHz6UY14z+0U8ErAxUrIRkWcGpW2mCHga9lCoGSdMO9Th1amPz
P1mL94tu6a6YSaJL8U1qbyJfFkPvvGdKhGsZsZfzS6zPcvwB6eEMSJcDTNYmC0lI
tmFiqdaE+rMmcMRvRyG0gm61qVeXV8swCXpXPQgHVAUWjHFCzn9QwqRwJbPAMoaw
/Wka5hmbRZ614mnkP/nUoTXlnElCBxjAwrk6qB6eXg4jsJnNO6gMX+EWbBn+TnR5
J1DTPZzkjUFaa77JjzP8WbP+/K7APgf5AgMBAAGjgZ4wgZswCQYDVR0TBAIwADAd
BgNVHQ4EFgQUajKH8SO0WRfV865HHbu8KvPhGNEwTQYDVR0jBEYwRIAUr+0EtWly
egEIT60e7rFHbIAgXPChFqQUMBIxEDAOBgNVBAMMB1Jvb3RfQ0GCFCzBeeULuAlm
f0aMUIYs2y+quyyaMBMGA1UdJQQMMAoGCCsGAQUFBwMCMAsGA1UdDwQEAwIHgDAN
BgkqhkiG9w0BAQsFAAOCAQEAfZvO/50WUV1nTPW2icAh/CbkJY9IVPDHcEEeHzKy
qWY7Dp++OLyuGLruOtsNp1VwA+lPbv2I8Ey2o4w1cdcHtZBNVC9xBdnKEU93k2yY
cm7p7+hfEZ1hq1b9BCy4X/czhH1diYuO6+soFoHabgwYxdJ5jpHnUTqGX/vfb90F
e/ep2JScKB5T3inear5xmavUMeAKKrdi5tYVW+Xk0tJO7vtrT4iT3ncq8UsVOA6C
NbZleXPKSdHiW7RObKLGih+vmrPUmJg8auINk3YLnrOFfPMehkruB9xpy1I8gIk/
Hkc5llHsGRED+oGM+9/FBJozSNc9lWllCo2CzZj7Herldg==
-----END CERTIFICATE-----
