Certificate:
    Data:
        Version: 3 (0x2)
        Serial Number:
            dc:dd:2c:a8:c9:57:59:99:1c:25:60:e1:50:81:9c:a7
        Signature Algorithm: sha256WithRSAEncryption
        Issuer: CN=Root_CA
        Validity
            Not Before: Apr 20 23:57:24 2025 GMT
            Not After : Jul 24 23:57:24 2027 GMT
        Subject: CN=VPN_Server
        Subject Public Key Info:
            Public Key Algorithm: rsaEncryption
                Public-Key: (2048 bit)
                Modulus:
                    00:97:9a:26:b0:63:81:c4:60:b6:2d:c7:c7:3b:bd:
                    28:2c:c4:6b:33:c7:ed:11:12:1d:77:18:9c:be:5e:
                    e8:6e:a8:86:da:fb:da:7f:76:60:97:72:fa:c7:56:
                    f2:bf:b0:6d:5b:d8:50:ed:6f:1a:d6:1f:c4:17:03:
                    f0:2f:15:50:b7:d7:c7:62:80:0a:f0:85:e9:7e:06:
                    25:54:81:5d:20:4e:2c:48:b4:47:ed:47:56:9c:c7:
                    b6:bc:57:f3:29:a3:58:c5:f2:24:e4:44:83:24:90:
                    ba:95:b9:9c:83:ea:4f:dd:6b:9d:c3:19:d5:7d:a9:
                    c1:1f:41:04:33:1f:08:ae:2b:e8:f7:bc:4f:f1:e0:
                    87:31:9b:8a:99:ac:02:e2:aa:f1:0f:5b:d9:0c:6a:
                    cb:d7:41:77:ba:75:fb:67:cc:e9:87:49:1b:a7:2c:
                    9b:b2:27:64:21:c8:2a:21:3f:4e:48:3c:7e:3c:66:
                    4e:cd:67:09:95:36:5d:33:3f:c5:ba:d5:6d:a1:96:
                    09:fb:78:ac:5a:98:d3:ab:18:51:4a:39:42:32:e1:
                    3c:cc:49:21:9a:8d:d6:8e:39:d2:a7:72:8e:fc:34:
                    0c:f6:02:0c:81:da:33:90:2c:dd:37:7e:7d:9a:7c:
                    f4:77:80:65:a0:0a:e3:c0:7f:b6:4f:88:65:1f:60:
                    b1:f3
                Exponent: 65537 (0x10001)
        X509v3 extensions:
            X509v3 Basic Constraints: 
                CA:FALSE
            X509v3 Subject Key Identifier: 
                7D:3B:F2:B9:3A:CE:EF:31:49:2D:37:8B:8A:0F:EA:E0:F7:02:E1:D9
            X509v3 Authority Key Identifier: 
                keyid:6B:4E:3E:48:78:4F:ED:F2:64:99:18:07:2A:3D:7B:E7:C0:30:64:70
                DirName:/CN=Root_CA
                serial:1B:E5:3D:0E:D9:31:14:48:FE:A2:17:B9:32:7B:78:33:52:B4:41:46
            X509v3 Extended Key Usage: 
                TLS Web Server Authentication
            X509v3 Key Usage: 
                Digital Signature, Key Encipherment
    Signature Algorithm: sha256WithRSAEncryption
    Signature Value:
        07:1d:20:46:bb:dc:01:3a:e9:bb:28:87:c4:c1:61:31:6f:d3:
        fa:f9:77:8b:d8:36:7b:26:c2:d6:88:27:dd:3a:36:cf:04:3b:
        b6:d7:d4:6e:40:d1:7b:49:74:33:c9:e0:db:e7:d3:47:a0:a9:
        6d:15:ea:05:9a:ab:66:54:bf:c8:5b:d1:84:f9:ca:dd:b2:c4:
        28:83:d0:bf:b4:5e:65:66:fd:50:9e:79:46:1d:e1:b5:3a:ec:
        74:ec:fc:12:99:85:85:cf:c4:01:75:4b:fd:97:61:64:5f:b9:
        8e:1f:bb:dc:d0:7a:38:cf:c5:0e:df:49:f3:46:a9:ca:6e:37:
        f7:52:a1:12:f9:1f:f8:f0:12:a1:a5:e5:08:5e:e8:b2:18:d8:
        0d:39:42:b5:36:02:a4:50:c5:d0:e4:0a:ef:71:67:94:1f:80:
        c1:0d:2e:28:57:c0:1b:27:ca:19:a4:75:b3:93:08:fb:d1:04:
        68:24:f2:6c:ce:0c:8e:da:81:1c:e4:5d:06:ac:b4:bd:84:f2:
        8c:df:96:02:99:c0:99:7c:7c:79:f0:b4:ad:c9:36:dc:7b:c7:
        d1:3b:5d:57:58:54:47:55:f4:2e:12:4d:34:1d:ce:ff:4b:5b:
        a8:fa:66:44:a5:92:c0:2f:22:ae:9c:87:a6:4f:32:38:45:0e:
        a1:1b:4b:67
-----BEGIN CERTIFICATE-----
MIIDUTCCAjmgAwIBAgIRANzdLKjJV1mZHCVg4VCBnKcwDQYJKoZIhvcNAQELBQAw
EjEQMA4GA1UEAwwHUm9vdF9DQTAeFw0yNTA0MjAyMzU3MjRaFw0yNzA3MjQyMzU3
MjRaMBUxEzARBgNVBAMMClZQTl9TZXJ2ZXIwggEiMA0GCSqGSIb3DQEBAQUAA4IB
DwAwggEKAoIBAQCXmiawY4HEYLYtx8c7vSgsxGszx+0REh13GJy+XuhuqIba+9p/
dmCXcvrHVvK/sG1b2FDtbxrWH8QXA/AvFVC318digArwhel+BiVUgV0gTixItEft
R1acx7a8V/Mpo1jF8iTkRIMkkLqVuZyD6k/da53DGdV9qcEfQQQzHwiuK+j3vE/x
4Icxm4qZrALiqvEPW9kMasvXQXe6dftnzOmHSRunLJuyJ2QhyCohP05IPH48Zk7N
ZwmVNl0zP8W61W2hlgn7eKxamNOrGFFKOUIy4TzMSSGajdaOOdKnco78NAz2AgyB
2jOQLN03fn2afPR3gGWgCuPAf7ZPiGUfYLHzAgMBAAGjgZ4wgZswCQYDVR0TBAIw
ADAdBgNVHQ4EFgQUfTvyuTrO7zFJLTeLig/q4PcC4dkwTQYDVR0jBEYwRIAUa04+
SHhP7fJkmRgHKj1758AwZHChFqQUMBIxEDAOBgNVBAMMB1Jvb3RfQ0GCFBvlPQ7Z
MRRI/qIXuTJ7eDNStEFGMBMGA1UdJQQMMAoGCCsGAQUFBwMBMAsGA1UdDwQEAwIF
oDANBgkqhkiG9w0BAQsFAAOCAQEABx0gRrvcATrpuyiHxMFhMW/T+vl3i9g2eybC
1ogn3To2zwQ7ttfUbkDRe0l0M8ng2+fTR6CpbRXqBZqrZlS/yFvRhPnK3bLEKIPQ
v7ReZWb9UJ55Rh3htTrsdOz8EpmFhc/EAXVL/ZdhZF+5jh+73NB6OM/FDt9J80ap
ym4391KhEvkf+PASoaXlCF7oshjYDTlCtTYCpFDF0OQK73FnlB+AwQ0uKFfAGyfK
GaR1s5MI+9EEaCTybM4MjtqBHORdBqy0vYTyjN+WApnAmXx8efC0rck23HvH0Ttd
V1hUR1X0LhJNNB3O/0tbqPpmRKWSwC8irpyHpk8yOEUOoRtLZw==
-----END CERTIFICATE-----
